target datalayout = "e-m:e-p270:32:32-p271:32:32-p272:64:64-i64:64-i128:128-f80:128-n8:16:32:64-S128"
target triple = "x86_64-pc-linux-gnu"

%struct.Vec2 = type { float, float }

@.str.56 = private unnamed_addr constant [5 x i8] c"vec2\00", align 1
@.str.196 = private unnamed_addr constant [10 x i8] c"Magnitude\00", align 1
@.str.197 = private unnamed_addr constant [5 x i8] c"Unit\00", align 1
@.str.199 = private unnamed_addr constant [35 x i8] c"%s is not a valid member of vector\00", align 1
@.str.202 = private unnamed_addr constant [2 x i8] c"X\00", align 1
@.str.203 = private unnamed_addr constant [2 x i8] c"Y\00", align 1

; Function Attrs: mustprogress uwtable
define dso_local noundef ptr @_Z13lua_vec2_pushP9lua_State(ptr noundef %0) #4 {
  %2 = alloca ptr, align 8
  %3 = alloca ptr, align 8
  store ptr %0, ptr %2, align 8
  %4 = load ptr, ptr %2, align 8
  %5 = call noundef ptr @_Z21lua_newuserdatataggedP9lua_Statemi(ptr noundef %4, i64 noundef 8, i32 noundef 12)
  store ptr %5, ptr %3, align 8
  %6 = load ptr, ptr %2, align 8
  call void @_Z24lua_getuserdatametatableP9lua_Statei(ptr noundef %6, i32 noundef 12)
  %7 = load ptr, ptr %2, align 8
  %8 = call noundef i32 @_Z16lua_setmetatableP9lua_Statei(ptr noundef %7, i32 noundef -2)
  %9 = load ptr, ptr %3, align 8
  ret ptr %9
}

; Function Attrs: mustprogress uwtable
define dso_local noundef ptr @_Z12lua_vec2_getP9lua_Statei(ptr noundef %0, i32 noundef %1) #4 {
  %3 = alloca ptr, align 8
  %4 = alloca i32, align 4
  %5 = alloca ptr, align 8
  store ptr %0, ptr %3, align 8
  store i32 %1, ptr %4, align 4
  %6 = load ptr, ptr %3, align 8
  %7 = load i32, ptr %4, align 4
  %8 = call noundef ptr @_Z20lua_touserdatataggedP9lua_Stateii(ptr noundef %6, i32 noundef %7, i32 noundef 12)
  store ptr %8, ptr %5, align 8
  %9 = load ptr, ptr %5, align 8
  %10 = icmp ne ptr %9, null
  br i1 %10, label %11, label %13

11:                                               ; preds = %2
  %12 = load ptr, ptr %5, align 8
  ret ptr %12

13:                                               ; preds = %2
  %14 = load ptr, ptr %3, align 8
  %15 = load i32, ptr %4, align 4
  call void @_Z15luaL_typeerrorLP9lua_StateiPKc(ptr noundef %14, i32 noundef %15, ptr noundef @.str.56) #19
  unreachable
}

; Function Attrs: mustprogress uwtable
define internal noundef i32 @_ZL14lua_vec2_indexP9lua_State(ptr noundef %0) #4 {
  %2 = alloca i32, align 4
  %3 = alloca ptr, align 8
  %4 = alloca ptr, align 8
  %5 = alloca ptr, align 8
  %6 = alloca float, align 4
  %7 = alloca ptr, align 8
  store ptr %0, ptr %3, align 8
  %8 = load ptr, ptr %3, align 8
  %9 = call noundef ptr @_Z12lua_vec2_getP9lua_Statei(ptr noundef %8, i32 noundef 1)
  store ptr %9, ptr %4, align 8
  %10 = load ptr, ptr %3, align 8
  %11 = call noundef ptr @_Z17luaL_checklstringP9lua_StateiPm(ptr noundef %10, i32 noundef 2, ptr noundef null)
  store ptr %11, ptr %5, align 8
  %12 = load ptr, ptr %5, align 8
  %13 = call i32 @strcmp(ptr noundef %12, ptr noundef @.str.202) #18
  %14 = icmp eq i32 %13, 0
  br i1 %14, label %15, label %21

15:                                               ; preds = %1
  %16 = load ptr, ptr %3, align 8
  %17 = load ptr, ptr %4, align 8
  %18 = getelementptr inbounds %struct.Vec2, ptr %17, i32 0, i32 0
  %19 = load float, ptr %18, align 4
  %20 = fpext float %19 to double
  call void @_Z14lua_pushnumberP9lua_Stated(ptr noundef %16, double noundef %20)
  store i32 1, ptr %2, align 4
  br label %93

21:                                               ; preds = %1
  %22 = load ptr, ptr %5, align 8
  %23 = call i32 @strcmp(ptr noundef %22, ptr noundef @.str.203) #18
  %24 = icmp eq i32 %23, 0
  br i1 %24, label %25, label %31

25:                                               ; preds = %21
  %26 = load ptr, ptr %3, align 8
  %27 = load ptr, ptr %4, align 8
  %28 = getelementptr inbounds %struct.Vec2, ptr %27, i32 0, i32 1
  %29 = load float, ptr %28, align 4
  %30 = fpext float %29 to double
  call void @_Z14lua_pushnumberP9lua_Stated(ptr noundef %26, double noundef %30)
  store i32 1, ptr %2, align 4
  br label %93

31:                                               ; preds = %21
  %32 = load ptr, ptr %5, align 8
  %33 = call i32 @strcmp(ptr noundef %32, ptr noundef @.str.196) #18
  %34 = icmp eq i32 %33, 0
  br i1 %34, label %35, label %53

35:                                               ; preds = %31
  %36 = load ptr, ptr %3, align 8
  %37 = load ptr, ptr %4, align 8
  %38 = getelementptr inbounds %struct.Vec2, ptr %37, i32 0, i32 0
  %39 = load float, ptr %38, align 4
  %40 = load ptr, ptr %4, align 8
  %41 = getelementptr inbounds %struct.Vec2, ptr %40, i32 0, i32 0
  %42 = load float, ptr %41, align 4
  %43 = load ptr, ptr %4, align 8
  %44 = getelementptr inbounds %struct.Vec2, ptr %43, i32 0, i32 1
  %45 = load float, ptr %44, align 4
  %46 = load ptr, ptr %4, align 8
  %47 = getelementptr inbounds %struct.Vec2, ptr %46, i32 0, i32 1
  %48 = load float, ptr %47, align 4
  %49 = fmul float %45, %48
  %50 = call float @llvm.fmuladd.f32(float %39, float %42, float %49)
  %51 = call float @sqrtf(float noundef %50) #16
  %52 = fpext float %51 to double
  call void @_Z14lua_pushnumberP9lua_Stated(ptr noundef %36, double noundef %52)
  store i32 1, ptr %2, align 4
  br label %93

53:                                               ; preds = %31
  %54 = load ptr, ptr %5, align 8
  %55 = call i32 @strcmp(ptr noundef %54, ptr noundef @.str.197) #18
  %56 = icmp eq i32 %55, 0
  br i1 %56, label %57, label %90

57:                                               ; preds = %53
  %58 = load ptr, ptr %4, align 8
  %59 = getelementptr inbounds %struct.Vec2, ptr %58, i32 0, i32 0
  %60 = load float, ptr %59, align 4
  %61 = load ptr, ptr %4, align 8
  %62 = getelementptr inbounds %struct.Vec2, ptr %61, i32 0, i32 0
  %63 = load float, ptr %62, align 4
  %64 = load ptr, ptr %4, align 8
  %65 = getelementptr inbounds %struct.Vec2, ptr %64, i32 0, i32 1
  %66 = load float, ptr %65, align 4
  %67 = load ptr, ptr %4, align 8
  %68 = getelementptr inbounds %struct.Vec2, ptr %67, i32 0, i32 1
  %69 = load float, ptr %68, align 4
  %70 = fmul float %66, %69
  %71 = call float @llvm.fmuladd.f32(float %60, float %63, float %70)
  %72 = call float @sqrtf(float noundef %71) #16
  %73 = fdiv float 1.000000e+00, %72
  store float %73, ptr %6, align 4
  %74 = load ptr, ptr %3, align 8
  %75 = call noundef ptr @_Z13lua_vec2_pushP9lua_State(ptr noundef %74)
  store ptr %75, ptr %7, align 8
  %76 = load ptr, ptr %4, align 8
  %77 = getelementptr inbounds %struct.Vec2, ptr %76, i32 0, i32 0
  %78 = load float, ptr %77, align 4
  %79 = load float, ptr %6, align 4
  %80 = fmul float %78, %79
  %81 = load ptr, ptr %7, align 8
  %82 = getelementptr inbounds %struct.Vec2, ptr %81, i32 0, i32 0
  store float %80, ptr %82, align 4
  %83 = load ptr, ptr %4, align 8
  %84 = getelementptr inbounds %struct.Vec2, ptr %83, i32 0, i32 1
  %85 = load float, ptr %84, align 4
  %86 = load float, ptr %6, align 4
  %87 = fmul float %85, %86
  %88 = load ptr, ptr %7, align 8
  %89 = getelementptr inbounds %struct.Vec2, ptr %88, i32 0, i32 1
  store float %87, ptr %89, align 4
  store i32 1, ptr %2, align 4
  br label %93

90:                                               ; preds = %53
  %91 = load ptr, ptr %3, align 8
  %92 = load ptr, ptr %5, align 8
  call void (ptr, ptr, ...) @_Z11luaL_errorLP9lua_StatePKcz(ptr noundef %91, ptr noundef @.str.199, ptr noundef %92) #19
  unreachable

93:                                               ; preds = %57, %35, %25, %15
  %94 = load i32, ptr %2, align 4
  ret i32 %94
}