; Function Attrs: mustprogress uwtable
define internal noundef i32 @_ZL14lua_vec2_indexP9lua_State(ptr noundef %0) #4 {
  %2 = tail call noundef ptr @_Z20lua_touserdatataggedP9lua_Stateii(ptr noundef %0, i32 noundef 1, i32 noundef 12)
  %.not.i = icmp eq ptr %2, null
  br i1 %.not.i, label %3, label %_Z12lua_vec2_getP9lua_Statei.exit

3:                                                ; preds = %1
  tail call void @_Z15luaL_typeerrorLP9lua_StateiPKc(ptr noundef %0, i32 noundef 1, ptr noundef nonnull @.str.56) #34
  unreachable

_Z12lua_vec2_getP9lua_Statei.exit:                ; preds = %1
  %4 = tail call noundef ptr @_Z17luaL_checklstringP9lua_StateiPm(ptr noundef %0, i32 noundef 2, ptr noundef null)
  %5 = load i8, ptr %4, align 1
  switch i8 %5, label %.tail.thread [
    i8 88, label %_Z12lua_vec2_getP9lua_Statei.exit.tail
    i8 89, label %.tail
  ]

_Z12lua_vec2_getP9lua_Statei.exit.tail:           ; preds = %_Z12lua_vec2_getP9lua_Statei.exit
  %6 = getelementptr inbounds i8, ptr %4, i64 1
  %7 = load i8, ptr %6, align 1
  %8 = icmp eq i8 %7, 0
  br i1 %8, label %9, label %.tail.thread

9:                                                ; preds = %_Z12lua_vec2_getP9lua_Statei.exit.tail
  %10 = load float, ptr %2, align 4
  %11 = fpext float %10 to double
  tail call void @_Z14lua_pushnumberP9lua_Stated(ptr noundef %0, double noundef %11)
  br label %46

.tail:                                            ; preds = %_Z12lua_vec2_getP9lua_Statei.exit
  %12 = getelementptr inbounds i8, ptr %4, i64 1
  %13 = load i8, ptr %12, align 1
  %14 = icmp eq i8 %13, 0
  br i1 %14, label %15, label %.tail.thread

15:                                               ; preds = %.tail
  %16 = getelementptr inbounds i8, ptr %2, i64 4
  %17 = load float, ptr %16, align 4
  %18 = fpext float %17 to double
  tail call void @_Z14lua_pushnumberP9lua_Stated(ptr noundef %0, double noundef %18)
  br label %46

.tail.thread:                                     ; preds = %_Z12lua_vec2_getP9lua_Statei.exit, %_Z12lua_vec2_getP9lua_Statei.exit.tail, %.tail
  %19 = tail call i32 @strcmp(ptr noundef nonnull dereferenceable(1) %4, ptr noundef nonnull dereferenceable(10) @.str.196) #33
  %20 = icmp eq i32 %19, 0
  br i1 %20, label %21, label %28

21:                                               ; preds = %.tail.thread
  %22 = load float, ptr %2, align 4
  %23 = getelementptr inbounds i8, ptr %2, i64 4
  %24 = load float, ptr %23, align 4
  %25 = fmul float %24, %24
  %26 = tail call float @llvm.fmuladd.f32(float %22, float %22, float %25)
  %sqrt = tail call float @llvm.sqrt.f32(float %26)
  %27 = fpext float %sqrt to double
  tail call void @_Z14lua_pushnumberP9lua_Stated(ptr noundef %0, double noundef %27)
  br label %46

28:                                               ; preds = %.tail.thread
  %29 = tail call i32 @strcmp(ptr noundef nonnull dereferenceable(1) %4, ptr noundef nonnull dereferenceable(5) @.str.197) #33
  %30 = icmp eq i32 %29, 0
  br i1 %30, label %31, label %45

31:                                               ; preds = %28
  %32 = load float, ptr %2, align 4
  %33 = getelementptr inbounds i8, ptr %2, i64 4
  %34 = load float, ptr %33, align 4
  %35 = fmul float %34, %34
  %36 = tail call float @llvm.fmuladd.f32(float %32, float %32, float %35)
  %sqrt31 = tail call float @llvm.sqrt.f32(float %36)
  %37 = fdiv float 1.000000e+00, %sqrt31
  %38 = tail call noundef ptr @_Z21lua_newuserdatataggedP9lua_Statemi(ptr noundef %0, i64 noundef 8, i32 noundef 12)
  tail call void @_Z24lua_getuserdatametatableP9lua_Statei(ptr noundef %0, i32 noundef 12)
  %39 = tail call noundef i32 @_Z16lua_setmetatableP9lua_Statei(ptr noundef %0, i32 noundef -2)
  %40 = load float, ptr %2, align 4
  %41 = fmul float %40, %37
  store float %41, ptr %38, align 4
  %42 = load float, ptr %33, align 4
  %43 = fmul float %37, %42
  %44 = getelementptr inbounds i8, ptr %38, i64 4
  store float %43, ptr %44, align 4
  br label %46

45:                                               ; preds = %28
  tail call void (ptr, ptr, ...) @_Z11luaL_errorLP9lua_StatePKcz(ptr noundef %0, ptr noundef nonnull @.str.199, ptr noundef nonnull %4) #34
  unreachable

46:                                               ; preds = %31, %21, %15, %9
  ret i32 1
}